(dp1
S'text'
p2
S"This is simply not the way to do it, don't you have some sense?"
p3
sS'parses'
p4
(lp5
S'root(ROOT-0, have-14)'
p6
aS'nsubj(is-2, This-1)'
p7
aS'dep(have-14, is-2)'
p8
aS'advmod(is-2, simply-3)'
p9
aS'dep(do-11, not-4)'
p10
aS'det(way-6, the-5)'
p11
aS'nsubj(do-11, way-6)'
p12
aS'aux(do-8, to-7)'
p13
aS'vmod(way-6, do-8)'
p14
aS'dobj(do-8, it-9)'
p15
aS'ccomp(is-2, do-11)'
p16
aS"neg(do-11, n't-12)"
p17
aS'nsubj(have-14, you-13)'
p18
aS'det(sense-16, some-15)'
p19
aS'dobj(have-14, sense-16)'
p20
asS'sentences'
p21
(lp22
g3
as.